; Function Attrs: mustprogress uwtable
define hidden noundef zeroext i1 @_ZNK2cv6detail10GOriginCmpclERKNS_7GOriginES4_(ptr nocapture noundef nonnull readnone align 1 dereferenceable(1) %0, ptr noundef nonnull align 8 dereferenceable(180) %1, ptr noundef nonnull align 8 dereferenceable(180) %2) local_unnamed_addr #3 align 2 personality ptr @__gxx_personality_v0 {
  %4 = alloca %"class.std::__cxx11::basic_string", align 8
  %5 = alloca %"class.std::allocator", align 1
  %6 = getelementptr inbounds i8, ptr %1, i64 8
  %7 = tail call noundef nonnull align 8 dereferenceable(64) ptr @_ZNK2cv5GNode4privEv(ptr noundef nonnull align 8 dereferenceable(16) %6)
  %8 = getelementptr inbounds i8, ptr %2, i64 8
  %9 = tail call noundef nonnull align 8 dereferenceable(64) ptr @_ZNK2cv5GNode4privEv(ptr noundef nonnull align 8 dereferenceable(16) %8)
  %10 = icmp eq ptr %7, %9
  br i1 %10, label %11, label %31

11:                                               ; preds = %3
  %12 = getelementptr inbounds i8, ptr %1, i64 128
  %13 = load i64, ptr %12, align 8
  %14 = getelementptr inbounds i8, ptr %2, i64 128
  %15 = load i64, ptr %14, align 8
  %16 = icmp eq i64 %13, %15
  br i1 %16, label %17, label %29

17:                                               ; preds = %11
  %18 = load i32, ptr %1, align 8
  %19 = load i32, ptr %2, align 8
  %20 = icmp eq i32 %18, %19
  br i1 %20, label %29, label %21

21:                                               ; preds = %17
  call void @_ZNSaIcEC1Ev(ptr noundef nonnull align 1 dereferenceable(1) %5) #10
  invoke void @_ZNSt7__cxx1112basic_stringIcSt11char_traitsIcESaIcEEC1EPKcRKS3_(ptr noundef nonnull align 8 dereferenceable(32) %4, ptr noundef nonnull @.str, ptr noundef nonnull align 1 dereferenceable(1) %5)
          to label %22 unwind label %24

22:                                               ; preds = %21
  invoke void @_ZN2cv5errorEiRKNSt7__cxx1112basic_stringIcSt11char_traitsIcESaIcEEEPKcS9_i(i32 noundef -215, ptr noundef nonnull align 8 dereferenceable(32) %4, ptr noundef nonnull @__func__._ZNK2cv6detail10GOriginCmpclERKNS_7GOriginES4_, ptr noundef nonnull @.str.1, i32 noundef 43) #11
          to label %23 unwind label %26

23:                                               ; preds = %22
  unreachable

24:                                               ; preds = %21
  %25 = landingpad { ptr, i32 }
          cleanup
  br label %28

26:                                               ; preds = %22
  %27 = landingpad { ptr, i32 }
          cleanup
  call void @_ZNSt7__cxx1112basic_stringIcSt11char_traitsIcESaIcEED1Ev(ptr noundef nonnull align 8 dereferenceable(32) %4) #10
  br label %28

28:                                               ; preds = %26, %24
  %.pn = phi { ptr, i32 } [ %27, %26 ], [ %25, %24 ]
  call void @_ZNSaIcED1Ev(ptr noundef nonnull align 1 dereferenceable(1) %5) #10
  resume { ptr, i32 } %.pn

29:                                               ; preds = %17, %11
  %30 = icmp ult i64 %13, %15
  br label %33

31:                                               ; preds = %3
  %32 = icmp ult ptr %7, %9
  br label %33

33:                                               ; preds = %31, %29
  %.015 = phi i1 [ %30, %29 ], [ %32, %31 ]
  ret i1 %.015
}